target datalayout = "e-m:e-p270:32:32-p271:32:32-p272:64:64-i64:64-i128:128-f80:128-n8:16:32:64-S128"
target triple = "x86_64-pc-linux-gnu"

%struct.Abc_Frame_t_ = type { ptr, ptr, ptr, ptr, ptr, ptr, ptr, ptr, ptr, ptr, i32, i32, i32, i32, i32, ptr, float, float, i32, i32, ptr, ptr, ptr, double, double, ptr, ptr, ptr, ptr, ptr, ptr, ptr, ptr, ptr, ptr, ptr, ptr, float, ptr, i32, ptr, ptr, ptr, ptr, ptr, i32, i32, i32, i32, i32, i32, ptr, ptr, ptr, ptr, ptr, ptr, i32, i32, ptr, ptr, ptr, ptr, ptr, ptr, ptr, ptr, ptr, ptr, ptr, ptr, ptr, ptr, ptr, ptr, ptr, ptr, ptr, ptr, ptr, ptr, ptr, ptr, ptr, ptr, ptr, ptr, ptr, ptr }

@.str.65 = private unnamed_addr constant [2 x i8] c"h\00", align 1
@.str.116 = private unnamed_addr constant [34 x i8] c"   -h :  print the command usage\0A\00", align 1
@.str.117 = private unnamed_addr constant [19 x i8] c"usage: empty [-h]\0A\00", align 1
@.str.118 = private unnamed_addr constant [52 x i8] c"         removes all the currently stored networks\0A\00", align 1

; Function Attrs: nounwind uwtable
define internal i32 @CmdCommandEmpty(ptr noundef %0, i32 noundef %1, ptr noundef %2) #0 {
  %4 = alloca i32, align 4
  %5 = alloca ptr, align 8
  %6 = alloca i32, align 4
  %7 = alloca ptr, align 8
  %8 = alloca i32, align 4
  store ptr %0, ptr %5, align 8
  store i32 %1, ptr %6, align 4
  store ptr %2, ptr %7, align 8
  call void (...) @Extra_UtilGetoptReset()
  br label %9

9:                                                ; preds = %3
  %10 = load i32, ptr %6, align 4
  %11 = load ptr, ptr %7, align 8
  %12 = call i32 @Extra_UtilGetopt(i32 noundef %10, ptr noundef %11, ptr noundef @.str.65)
  store i32 %12, ptr %8, align 4
  %13 = icmp ne i32 %12, -1
  br i1 %13, label %14, label %18

14:                                               ; preds = %9
  %15 = load i32, ptr %8, align 4
  switch i32 %15, label %17 [
    i32 104, label %16
  ]

16:                                               ; preds = %14
  br label %21

17:                                               ; preds = %14
  br label %21

18:                                               ; preds = %9
  %19 = load ptr, ptr %5, align 8
  call void @Abc_FrameDeleteAllNetworks(ptr noundef %19)
  %20 = load ptr, ptr %5, align 8
  call void @Abc_FrameRestart(ptr noundef %20)
  store i32 0, ptr %4, align 4
  br label %34

21:                                               ; preds = %17, %16
  %22 = load ptr, ptr %5, align 8
  %23 = getelementptr inbounds %struct.Abc_Frame_t_, ptr %22, i32 0, i32 21
  %24 = load ptr, ptr %23, align 8
  %25 = call i32 (ptr, ptr, ...) @fprintf(ptr noundef %24, ptr noundef @.str.117) #9
  %26 = load ptr, ptr %5, align 8
  %27 = getelementptr inbounds %struct.Abc_Frame_t_, ptr %26, i32 0, i32 21
  %28 = load ptr, ptr %27, align 8
  %29 = call i32 (ptr, ptr, ...) @fprintf(ptr noundef %28, ptr noundef @.str.118) #9
  %30 = load ptr, ptr %5, align 8
  %31 = getelementptr inbounds %struct.Abc_Frame_t_, ptr %30, i32 0, i32 21
  %32 = load ptr, ptr %31, align 8
  %33 = call i32 (ptr, ptr, ...) @fprintf(ptr noundef %32, ptr noundef @.str.116) #9
  store i32 1, ptr %4, align 4
  br label %34

34:                                               ; preds = %21, %18
  %35 = load i32, ptr %4, align 4
  ret i32 %35
}