; Function Attrs: nounwind uwtable
define internal range(i32 0, 2) i32 @CmdCommandEmpty(ptr noundef %0, i32 noundef %1, ptr noundef %2) #0 {
  tail call void (...) @Extra_UtilGetoptReset() #17
  %4 = tail call i32 @Extra_UtilGetopt(i32 noundef %1, ptr noundef %2, ptr noundef nonnull @.str.65) #17
  %.not = icmp eq i32 %4, -1
  br i1 %.not, label %5, label %6

5:                                                ; preds = %3
  tail call void @Abc_FrameDeleteAllNetworks(ptr noundef %0) #17
  tail call void @Abc_FrameRestart(ptr noundef %0) #17
  br label %14

6:                                                ; preds = %3
  %7 = getelementptr inbounds nuw i8, ptr %0, i64 136
  %8 = load ptr, ptr %7, align 8
  %9 = tail call i64 @fwrite(ptr nonnull @.str.117, i64 18, i64 1, ptr %8)
  %10 = load ptr, ptr %7, align 8
  %11 = tail call i64 @fwrite(ptr nonnull @.str.118, i64 51, i64 1, ptr %10)
  %12 = load ptr, ptr %7, align 8
  %13 = tail call i64 @fwrite(ptr nonnull @.str.116, i64 33, i64 1, ptr %12)
  br label %14

14:                                               ; preds = %6, %5
  %.0 = phi i32 [ 1, %6 ], [ 0, %5 ]
  ret i32 %.0
}